; Function Attrs: nounwind uwtable
define ptr @lv_rb_remove(ptr noundef captures(address_is_null) %0, ptr noundef %1) local_unnamed_addr #0 {
  %.not = icmp eq ptr %0, null
  br i1 %.not, label %.preheader, label %.preheader23.i

.preheader:                                       ; preds = %2, %.preheader
  br label %.preheader

.preheader23.i:                                   ; preds = %2
  %3 = getelementptr inbounds nuw i8, ptr %0, i64 8
  %.01424.i = load ptr, ptr %0, align 8, !tbaa !12
  %.not1925.i = icmp eq ptr %.01424.i, null
  br i1 %.not1925.i, label %lv_rb_find.exit.preheader, label %.lr.ph.i

.lr.ph.i:                                         ; preds = %.preheader23.i, %8
  %.01426.i = phi ptr [ %.014.i, %8 ], [ %.01424.i, %.preheader23.i ]
  %4 = load ptr, ptr %3, align 8, !tbaa !10
  %5 = getelementptr inbounds nuw i8, ptr %.01426.i, i64 32
  %6 = load ptr, ptr %5, align 8, !tbaa !13
  %7 = tail call signext i8 %4(ptr noundef %1, ptr noundef %6) #5
  %.not20.i = icmp eq i8 %7, 0
  br i1 %.not20.i, label %10, label %8

8:                                                ; preds = %.lr.ph.i
  %9 = icmp slt i8 %7, 0
  %.216.in.v.i = select i1 %9, i64 8, i64 16
  %.216.in.i = getelementptr inbounds nuw i8, ptr %.01426.i, i64 %.216.in.v.i
  %.014.i = load ptr, ptr %.216.in.i, align 8, !tbaa !12
  %.not19.i = icmp eq ptr %.014.i, null
  br i1 %.not19.i, label %lv_rb_find.exit.preheader, label %.lr.ph.i, !llvm.loop !16

lv_rb_find.exit.preheader:                        ; preds = %8, %.preheader23.i
  br label %lv_rb_find.exit

lv_rb_find.exit:                                  ; preds = %lv_rb_find.exit.preheader, %lv_rb_find.exit
  br label %lv_rb_find.exit

10:                                               ; preds = %.lr.ph.i
  %11 = tail call ptr @lv_rb_remove_node(ptr noundef nonnull %0, ptr noundef nonnull %.01426.i)
  ret ptr %11
}